target datalayout = "e-m:e-p270:32:32-p271:32:32-p272:64:64-i64:64-i128:128-f80:128-n8:16:32:64-S128"
target triple = "x86_64-pc-linux-gnu"

%struct.lua_TValue = type { %union.Value, [1 x i32], i32 }
%union.Value = type { ptr }
%struct.Table = type { i8, i8, i8, i8, i8, i8, i8, i8, i32, %union.anon, ptr, ptr, ptr, ptr }
%union.anon = type { i32 }
%struct.lua_State = type { i8, i8, i8, i8, i8, i8, i8, ptr, ptr, ptr, ptr, ptr, ptr, ptr, ptr, i32, i32, i16, i16, i32, ptr, ptr, ptr, ptr, ptr }
%struct.CallInfo = type { ptr, ptr, ptr, ptr, i32, i32 }
%struct.GCheader = type { i8, i8, i8 }

; Function Attrs: mustprogress uwtable
define dso_local noundef ptr @_ZN4Luau7CodeGen14executeSETLISTEP9lua_StatePKjP10lua_TValueS6_(ptr noundef %0, ptr noundef %1, ptr noundef %2, ptr noundef %3) #2 {
  %5 = alloca ptr, align 8
  %6 = alloca ptr, align 8
  %7 = alloca ptr, align 8
  %8 = alloca ptr, align 8
  %9 = alloca ptr, align 8
  %10 = alloca ptr, align 8
  %11 = alloca i32, align 4
  %12 = alloca ptr, align 8
  %13 = alloca ptr, align 8
  %14 = alloca i32, align 4
  %15 = alloca i32, align 4
  %16 = alloca ptr, align 8
  %17 = alloca i32, align 4
  %18 = alloca ptr, align 8
  %19 = alloca i32, align 4
  %20 = alloca ptr, align 8
  %21 = alloca ptr, align 8
  store ptr %0, ptr %6, align 8
  store ptr %1, ptr %7, align 8
  store ptr %2, ptr %8, align 8
  store ptr %3, ptr %9, align 8
  %22 = load ptr, ptr %6, align 8
  %23 = getelementptr inbounds %struct.lua_State, ptr %22, i32 0, i32 10
  %24 = load ptr, ptr %23, align 8
  %25 = getelementptr inbounds %struct.CallInfo, ptr %24, i32 0, i32 1
  %26 = load ptr, ptr %25, align 8
  %27 = getelementptr inbounds %struct.lua_TValue, ptr %26, i32 0, i32 0
  %28 = load ptr, ptr %27, align 8
  store ptr %28, ptr %10, align 8
  %29 = load ptr, ptr %7, align 8
  %30 = getelementptr inbounds i32, ptr %29, i32 1
  store ptr %30, ptr %7, align 8
  %31 = load i32, ptr %29, align 4
  store i32 %31, ptr %11, align 4
  %32 = load ptr, ptr %8, align 8
  %33 = load i32, ptr %11, align 4
  %34 = lshr i32 %33, 8
  %35 = and i32 %34, 255
  %36 = zext i32 %35 to i64
  %37 = getelementptr inbounds %struct.lua_TValue, ptr %32, i64 %36
  store ptr %37, ptr %12, align 8
  %38 = load ptr, ptr %8, align 8
  %39 = load i32, ptr %11, align 4
  %40 = lshr i32 %39, 16
  %41 = and i32 %40, 255
  %42 = zext i32 %41 to i64
  %43 = getelementptr inbounds %struct.lua_TValue, ptr %38, i64 %42
  store ptr %43, ptr %13, align 8
  %44 = load i32, ptr %11, align 4
  %45 = lshr i32 %44, 24
  %46 = and i32 %45, 255
  %47 = sub i32 %46, 1
  store i32 %47, ptr %14, align 4
  %48 = load ptr, ptr %7, align 8
  %49 = getelementptr inbounds i32, ptr %48, i32 1
  store ptr %49, ptr %7, align 8
  %50 = load i32, ptr %48, align 4
  store i32 %50, ptr %15, align 4
  %51 = load i32, ptr %14, align 4
  %52 = icmp eq i32 %51, -1
  br i1 %52, label %53, label %70

53:                                               ; preds = %4
  %54 = load ptr, ptr %6, align 8
  %55 = getelementptr inbounds %struct.lua_State, ptr %54, i32 0, i32 7
  %56 = load ptr, ptr %55, align 8
  %57 = load ptr, ptr %13, align 8
  %58 = ptrtoint ptr %56 to i64
  %59 = ptrtoint ptr %57 to i64
  %60 = sub i64 %58, %59
  %61 = sdiv exact i64 %60, 16
  %62 = trunc i64 %61 to i32
  store i32 %62, ptr %14, align 4
  %63 = load ptr, ptr %6, align 8
  %64 = getelementptr inbounds %struct.lua_State, ptr %63, i32 0, i32 10
  %65 = load ptr, ptr %64, align 8
  %66 = getelementptr inbounds %struct.CallInfo, ptr %65, i32 0, i32 2
  %67 = load ptr, ptr %66, align 8
  %68 = load ptr, ptr %6, align 8
  %69 = getelementptr inbounds %struct.lua_State, ptr %68, i32 0, i32 7
  store ptr %67, ptr %69, align 8
  br label %70

70:                                               ; preds = %53, %4
  %71 = load ptr, ptr %12, align 8
  %72 = getelementptr inbounds %struct.lua_TValue, ptr %71, i32 0, i32 0
  %73 = load ptr, ptr %72, align 8
  store ptr %73, ptr %16, align 8
  %74 = load ptr, ptr %12, align 8
  %75 = getelementptr inbounds %struct.lua_TValue, ptr %74, i32 0, i32 2
  %76 = load i32, ptr %75, align 4
  %77 = icmp eq i32 %76, 6
  br i1 %77, label %79, label %78

78:                                               ; preds = %70
  store ptr null, ptr %5, align 8
  br label %139

79:                                               ; preds = %70
  %80 = load i32, ptr %15, align 4
  %81 = load i32, ptr %14, align 4
  %82 = add i32 %80, %81
  %83 = sub i32 %82, 1
  store i32 %83, ptr %17, align 4
  %84 = load i32, ptr %17, align 4
  %85 = load ptr, ptr %16, align 8
  %86 = getelementptr inbounds %struct.Table, ptr %85, i32 0, i32 8
  %87 = load i32, ptr %86, align 8
  %88 = icmp sgt i32 %84, %87
  br i1 %88, label %89, label %98

89:                                               ; preds = %79
  %90 = load ptr, ptr %7, align 8
  %91 = load ptr, ptr %6, align 8
  %92 = getelementptr inbounds %struct.lua_State, ptr %91, i32 0, i32 10
  %93 = load ptr, ptr %92, align 8
  %94 = getelementptr inbounds %struct.CallInfo, ptr %93, i32 0, i32 3
  store ptr %90, ptr %94, align 8
  %95 = load ptr, ptr %6, align 8
  %96 = load ptr, ptr %16, align 8
  %97 = load i32, ptr %17, align 4
  call void @_Z16luaH_resizearrayP9lua_StateP5Tablei(ptr noundef %95, ptr noundef %96, i32 noundef %97)
  br label %98

98:                                               ; preds = %89, %79
  %99 = load ptr, ptr %16, align 8
  %100 = getelementptr inbounds %struct.Table, ptr %99, i32 0, i32 11
  %101 = load ptr, ptr %100, align 8
  store ptr %101, ptr %18, align 8
  store i32 0, ptr %19, align 4
  br label %102

102:                                              ; preds = %120, %98
  %103 = load i32, ptr %19, align 4
  %104 = load i32, ptr %14, align 4
  %105 = icmp slt i32 %103, %104
  br i1 %105, label %106, label %123

106:                                              ; preds = %102
  %107 = load ptr, ptr %13, align 8
  %108 = load i32, ptr %19, align 4
  %109 = sext i32 %108 to i64
  %110 = getelementptr inbounds %struct.lua_TValue, ptr %107, i64 %109
  store ptr %110, ptr %20, align 8
  %111 = load ptr, ptr %18, align 8
  %112 = load i32, ptr %15, align 4
  %113 = load i32, ptr %19, align 4
  %114 = add i32 %112, %113
  %115 = sub i32 %114, 1
  %116 = zext i32 %115 to i64
  %117 = getelementptr inbounds %struct.lua_TValue, ptr %111, i64 %116
  store ptr %117, ptr %21, align 8
  %118 = load ptr, ptr %20, align 8
  %119 = load ptr, ptr %21, align 8
  call void @llvm.memcpy.p0.p0.i64(ptr align 8 %119, ptr align 8 %118, i64 16, i1 false)
  br label %120

120:                                              ; preds = %106
  %121 = load i32, ptr %19, align 4
  %122 = add nsw i32 %121, 1
  store i32 %122, ptr %19, align 4
  br label %102, !llvm.loop !14

123:                                              ; preds = %102
  %124 = load ptr, ptr %16, align 8
  %125 = getelementptr inbounds %struct.Table, ptr %124, i64 0
  %126 = getelementptr inbounds %struct.GCheader, ptr %125, i32 0, i32 1
  %127 = load i8, ptr %126, align 1
  %128 = zext i8 %127 to i32
  %129 = and i32 %128, 4
  %130 = icmp ne i32 %129, 0
  br i1 %130, label %131, label %137

131:                                              ; preds = %123
  %132 = load ptr, ptr %6, align 8
  %133 = load ptr, ptr %16, align 8
  %134 = getelementptr inbounds %struct.Table, ptr %133, i64 0
  %135 = load ptr, ptr %16, align 8
  %136 = getelementptr inbounds %struct.Table, ptr %135, i32 0, i32 13
  call void @_Z16luaC_barrierbackP9lua_StateP8GCObjectPS2_(ptr noundef %132, ptr noundef %134, ptr noundef %136)
  br label %137

137:                                              ; preds = %131, %123
  %138 = load ptr, ptr %7, align 8
  store ptr %138, ptr %5, align 8
  br label %139

139:                                              ; preds = %137, %78
  %140 = load ptr, ptr %5, align 8
  ret ptr %140
}