; Function Attrs: mustprogress uwtable
define dso_local noundef ptr @_ZN4Luau7CodeGen14executeSETLISTEP9lua_StatePKjP10lua_TValueS6_(ptr noundef %0, ptr noundef %1, ptr noundef %2, ptr nocapture noundef readnone %3) local_unnamed_addr #2 {
  %5 = getelementptr inbounds i8, ptr %0, i64 32
  %6 = getelementptr inbounds i8, ptr %1, i64 4
  %7 = load i32, ptr %1, align 4
  %8 = lshr i32 %7, 8
  %9 = and i32 %8, 255
  %10 = zext nneg i32 %9 to i64
  %11 = getelementptr inbounds %struct.lua_TValue, ptr %2, i64 %10
  %12 = lshr i32 %7, 16
  %13 = and i32 %12, 255
  %14 = zext nneg i32 %13 to i64
  %15 = getelementptr inbounds %struct.lua_TValue, ptr %2, i64 %14
  %16 = lshr i32 %7, 24
  %17 = add nsw i32 %16, -1
  %18 = getelementptr inbounds i8, ptr %1, i64 8
  %19 = load i32, ptr %6, align 4
  %20 = icmp ult i32 %7, 16777216
  br i1 %20, label %21, label %32

21:                                               ; preds = %4
  %22 = load ptr, ptr %5, align 8
  %23 = getelementptr inbounds i8, ptr %0, i64 8
  %24 = load ptr, ptr %23, align 8
  %25 = ptrtoint ptr %24 to i64
  %26 = ptrtoint ptr %15 to i64
  %27 = sub i64 %25, %26
  %28 = lshr exact i64 %27, 4
  %29 = trunc i64 %28 to i32
  %30 = getelementptr inbounds i8, ptr %22, i64 16
  %31 = load ptr, ptr %30, align 8
  store ptr %31, ptr %23, align 8
  br label %32

32:                                               ; preds = %21, %4
  %.041 = phi i32 [ %29, %21 ], [ %17, %4 ]
  %33 = load ptr, ptr %11, align 8
  %34 = getelementptr inbounds i8, ptr %11, i64 12
  %35 = load i32, ptr %34, align 4
  %36 = icmp eq i32 %35, 6
  br i1 %36, label %37, label %61

37:                                               ; preds = %32
  %38 = add i32 %19, -1
  %39 = add i32 %38, %.041
  %40 = getelementptr inbounds i8, ptr %33, i64 8
  %41 = load i32, ptr %40, align 8
  %42 = icmp sgt i32 %39, %41
  br i1 %42, label %43, label %46

43:                                               ; preds = %37
  %44 = load ptr, ptr %5, align 8
  %45 = getelementptr inbounds i8, ptr %44, i64 24
  store ptr %18, ptr %45, align 8
  tail call void @_Z16luaH_resizearrayP9lua_StateP5Tablei(ptr noundef %0, ptr noundef nonnull %33, i32 noundef %39)
  br label %46

46:                                               ; preds = %43, %37
  %47 = getelementptr inbounds i8, ptr %33, i64 24
  %48 = load ptr, ptr %47, align 8
  %49 = icmp sgt i32 %.041, 0
  br i1 %49, label %.lr.ph, label %._crit_edge

.lr.ph:                                           ; preds = %46
  %wide.trip.count = zext nneg i32 %.041 to i64
  br label %50

50:                                               ; preds = %.lr.ph, %50
  %indvars.iv = phi i64 [ 0, %.lr.ph ], [ %indvars.iv.next, %50 ]
  %51 = getelementptr inbounds %struct.lua_TValue, ptr %15, i64 %indvars.iv
  %52 = trunc nuw nsw i64 %indvars.iv to i32
  %53 = add i32 %38, %52
  %54 = zext i32 %53 to i64
  %55 = getelementptr inbounds %struct.lua_TValue, ptr %48, i64 %54
  tail call void @llvm.memcpy.p0.p0.i64(ptr noundef nonnull align 8 dereferenceable(16) %55, ptr noundef nonnull align 8 dereferenceable(16) %51, i64 16, i1 false)
  %indvars.iv.next = add nuw nsw i64 %indvars.iv, 1
  %exitcond.not = icmp eq i64 %indvars.iv.next, %wide.trip.count
  br i1 %exitcond.not, label %._crit_edge, label %50, !llvm.loop !14

._crit_edge:                                      ; preds = %50, %46
  %56 = getelementptr inbounds i8, ptr %33, i64 1
  %57 = load i8, ptr %56, align 1
  %58 = and i8 %57, 4
  %.not = icmp eq i8 %58, 0
  br i1 %.not, label %61, label %59

59:                                               ; preds = %._crit_edge
  %60 = getelementptr inbounds i8, ptr %33, i64 40
  tail call void @_Z16luaC_barrierbackP9lua_StateP8GCObjectPS2_(ptr noundef %0, ptr noundef nonnull %33, ptr noundef nonnull %60)
  br label %61

61:                                               ; preds = %._crit_edge, %59, %32
  %.0 = phi ptr [ null, %32 ], [ %18, %59 ], [ %18, %._crit_edge ]
  ret ptr %.0
}